target datalayout = "e-m:e-p270:32:32-p271:32:32-p272:64:64-i64:64-i128:128-f80:128-n8:16:32:64-S128"
target triple = "x86_64-pc-linux-gnu"

%union.anon.5 = type { ptr }

; Function Attrs: nounwind uwtable
define internal i32 @H5LT_make_dataset_numerical(i64 noundef %0, ptr noundef %1, i32 noundef %2, ptr noundef %3, i64 noundef %4, ptr noundef %5) #0 {
  %7 = alloca i32, align 4
  %8 = alloca i64, align 8
  %9 = alloca ptr, align 8
  %10 = alloca i32, align 4
  %11 = alloca ptr, align 8
  %12 = alloca i64, align 8
  %13 = alloca ptr, align 8
  %14 = alloca i64, align 8
  %15 = alloca i64, align 8
  %16 = alloca i32, align 4
  %17 = alloca i32, align 4
  %18 = alloca %union.anon.5, align 8
  %19 = alloca ptr, align 8
  store i64 %0, ptr %8, align 8, !tbaa !3
  store ptr %1, ptr %9, align 8, !tbaa !7
  store i32 %2, ptr %10, align 4, !tbaa !10
  store ptr %3, ptr %11, align 8, !tbaa !12
  store i64 %4, ptr %12, align 8, !tbaa !3
  store ptr %5, ptr %13, align 8, !tbaa !14
  call void @llvm.lifetime.start.p0(i64 8, ptr %14) #11
  store i64 -1, ptr %14, align 8, !tbaa !3
  call void @llvm.lifetime.start.p0(i64 8, ptr %15) #11
  store i64 -1, ptr %15, align 8, !tbaa !3
  %20 = load ptr, ptr %9, align 8, !tbaa !7
  %21 = icmp eq ptr %20, null
  br i1 %21, label %22, label %23

22:                                               ; preds = %6
  store i32 -1, ptr %7, align 4
  store i32 1, ptr %16, align 4
  br label %85

23:                                               ; preds = %6
  %24 = load i32, ptr %10, align 4, !tbaa !10
  %25 = load ptr, ptr %11, align 8, !tbaa !12
  %26 = call i64 @H5Screate_simple(i32 noundef %24, ptr noundef %25, ptr noundef null)
  store i64 %26, ptr %15, align 8, !tbaa !3
  %27 = icmp slt i64 %26, 0
  br i1 %27, label %28, label %29

28:                                               ; preds = %23
  store i32 -1, ptr %7, align 4
  store i32 1, ptr %16, align 4
  br label %85

29:                                               ; preds = %23
  %30 = load i64, ptr %8, align 8, !tbaa !3
  %31 = load ptr, ptr %9, align 8, !tbaa !7
  %32 = load i64, ptr %12, align 8, !tbaa !3
  %33 = load i64, ptr %15, align 8, !tbaa !3
  %34 = call i64 @H5Dcreate2(i64 noundef %30, ptr noundef %31, i64 noundef %32, i64 noundef %33, i64 noundef 0, i64 noundef 0, i64 noundef 0)
  store i64 %34, ptr %14, align 8, !tbaa !3
  %35 = icmp slt i64 %34, 0
  br i1 %35, label %36, label %37

36:                                               ; preds = %29
  br label %59

37:                                               ; preds = %29
  %38 = load ptr, ptr %13, align 8, !tbaa !14
  %39 = icmp ne ptr %38, null
  br i1 %39, label %40, label %48

40:                                               ; preds = %37
  %41 = load i64, ptr %14, align 8, !tbaa !3
  %42 = load i64, ptr %12, align 8, !tbaa !3
  %43 = load ptr, ptr %13, align 8, !tbaa !14
  %44 = call i32 @H5Dwrite(i64 noundef %41, i64 noundef %42, i64 noundef 0, i64 noundef 0, i64 noundef 0, ptr noundef %43)
  %45 = icmp slt i32 %44, 0
  br i1 %45, label %46, label %47

46:                                               ; preds = %40
  br label %59

47:                                               ; preds = %40
  br label %48

48:                                               ; preds = %47, %37
  %49 = load i64, ptr %14, align 8, !tbaa !3
  %50 = call i32 @H5Dclose(i64 noundef %49)
  %51 = icmp slt i32 %50, 0
  br i1 %51, label %52, label %53

52:                                               ; preds = %48
  store i32 -1, ptr %7, align 4
  store i32 1, ptr %16, align 4
  br label %85

53:                                               ; preds = %48
  %54 = load i64, ptr %15, align 8, !tbaa !3
  %55 = call i32 @H5Sclose(i64 noundef %54)
  %56 = icmp slt i32 %55, 0
  br i1 %56, label %57, label %58

57:                                               ; preds = %53
  store i32 -1, ptr %7, align 4
  store i32 1, ptr %16, align 4
  br label %85

58:                                               ; preds = %53
  store i32 0, ptr %7, align 4
  store i32 1, ptr %16, align 4
  br label %85

59:                                               ; preds = %46, %36
  call void @llvm.lifetime.start.p0(i64 4, ptr %17) #11
  call void @llvm.lifetime.start.p0(i64 8, ptr %18) #11
  call void @llvm.lifetime.start.p0(i64 8, ptr %19) #11
  %60 = call i32 @H5Eauto_is_v2(i64 noundef 0, ptr noundef %17)
  %61 = load i32, ptr %17, align 4, !tbaa !10
  %62 = icmp ne i32 %61, 0
  br i1 %62, label %63, label %66

63:                                               ; preds = %59
  %64 = call i32 @H5Eget_auto2(i64 noundef 0, ptr noundef %18, ptr noundef %19)
  %65 = call i32 @H5Eset_auto2(i64 noundef 0, ptr noundef null, ptr noundef null)
  br label %69

66:                                               ; preds = %59
  %67 = call i32 @H5Eget_auto1(ptr noundef %18, ptr noundef %19)
  %68 = call i32 @H5Eset_auto1(ptr noundef null, ptr noundef null)
  br label %69

69:                                               ; preds = %66, %63
  %70 = load i64, ptr %14, align 8, !tbaa !3
  %71 = call i32 @H5Dclose(i64 noundef %70)
  %72 = load i64, ptr %15, align 8, !tbaa !3
  %73 = call i32 @H5Sclose(i64 noundef %72)
  %74 = load i32, ptr %17, align 4, !tbaa !10
  %75 = icmp ne i32 %74, 0
  br i1 %75, label %76, label %80

76:                                               ; preds = %69
  %77 = load ptr, ptr %18, align 8, !tbaa !15
  %78 = load ptr, ptr %19, align 8, !tbaa !14
  %79 = call i32 @H5Eset_auto2(i64 noundef 0, ptr noundef %77, ptr noundef %78)
  br label %84

80:                                               ; preds = %69
  %81 = load ptr, ptr %18, align 8, !tbaa !15
  %82 = load ptr, ptr %19, align 8, !tbaa !14
  %83 = call i32 @H5Eset_auto1(ptr noundef %81, ptr noundef %82)
  br label %84

84:                                               ; preds = %80, %76
  call void @llvm.lifetime.end.p0(i64 8, ptr %19) #11
  call void @llvm.lifetime.end.p0(i64 8, ptr %18) #11
  call void @llvm.lifetime.end.p0(i64 4, ptr %17) #11
  store i32 -1, ptr %7, align 4
  store i32 1, ptr %16, align 4
  br label %85

85:                                               ; preds = %84, %58, %57, %52, %28, %22
  call void @llvm.lifetime.end.p0(i64 8, ptr %15) #11
  call void @llvm.lifetime.end.p0(i64 8, ptr %14) #11
  %86 = load i32, ptr %7, align 4
  ret i32 %86
}