; Function Attrs: nounwind uwtable
define internal fastcc range(i32 -1, 1) i32 @H5LT_make_dataset_numerical(i64 noundef %0, ptr noundef %1, i32 noundef %2, ptr noundef %3, i64 noundef %4, ptr noundef %5) unnamed_addr #0 {
  %7 = alloca i32, align 4
  %8 = alloca %union.anon.5, align 8
  %9 = alloca ptr, align 8
  %10 = icmp eq ptr %1, null
  br i1 %10, label %46, label %11

11:                                               ; preds = %6
  %12 = tail call i64 @H5Screate_simple(i32 noundef %2, ptr noundef %3, ptr noundef null) #20
  %13 = icmp slt i64 %12, 0
  br i1 %13, label %46, label %14

14:                                               ; preds = %11
  %15 = tail call i64 @H5Dcreate2(i64 noundef %0, ptr noundef nonnull %1, i64 noundef %4, i64 noundef %12, i64 noundef 0, i64 noundef 0, i64 noundef 0) #20
  %16 = icmp slt i64 %15, 0
  br i1 %16, label %26, label %17

17:                                               ; preds = %14
  %.not = icmp eq ptr %5, null
  br i1 %.not, label %21, label %18

18:                                               ; preds = %17
  %19 = tail call i32 @H5Dwrite(i64 noundef %15, i64 noundef %4, i64 noundef 0, i64 noundef 0, i64 noundef 0, ptr noundef nonnull %5) #20
  %20 = icmp slt i32 %19, 0
  br i1 %20, label %26, label %21

21:                                               ; preds = %18, %17
  %22 = tail call i32 @H5Dclose(i64 noundef %15) #20
  %23 = icmp slt i32 %22, 0
  br i1 %23, label %46, label %24

24:                                               ; preds = %21
  %25 = tail call i32 @H5Sclose(i64 noundef %12) #20
  %.lobit = ashr i32 %25, 31
  br label %46

26:                                               ; preds = %18, %14
  call void @llvm.lifetime.start.p0(i64 4, ptr nonnull %7) #20
  call void @llvm.lifetime.start.p0(i64 8, ptr nonnull %8) #20
  call void @llvm.lifetime.start.p0(i64 8, ptr nonnull %9) #20
  %27 = call i32 @H5Eauto_is_v2(i64 noundef 0, ptr noundef nonnull %7) #20
  %28 = load i32, ptr %7, align 4, !tbaa !3
  %.not19 = icmp eq i32 %28, 0
  br i1 %.not19, label %32, label %29

29:                                               ; preds = %26
  %30 = call i32 @H5Eget_auto2(i64 noundef 0, ptr noundef nonnull %8, ptr noundef nonnull %9) #20
  %31 = call i32 @H5Eset_auto2(i64 noundef 0, ptr noundef null, ptr noundef null) #20
  br label %35

32:                                               ; preds = %26
  %33 = call i32 @H5Eget_auto1(ptr noundef nonnull %8, ptr noundef nonnull %9) #20
  %34 = call i32 @H5Eset_auto1(ptr noundef null, ptr noundef null) #20
  br label %35

35:                                               ; preds = %32, %29
  %36 = call i32 @H5Dclose(i64 noundef %15) #20
  %37 = call i32 @H5Sclose(i64 noundef %12) #20
  %38 = load i32, ptr %7, align 4, !tbaa !3
  %.not20 = icmp eq i32 %38, 0
  %39 = load ptr, ptr %8, align 8, !tbaa !7
  %40 = load ptr, ptr %9, align 8, !tbaa !8
  br i1 %.not20, label %43, label %41

41:                                               ; preds = %35
  %42 = call i32 @H5Eset_auto2(i64 noundef 0, ptr noundef %39, ptr noundef %40) #20
  br label %45

43:                                               ; preds = %35
  %44 = call i32 @H5Eset_auto1(ptr noundef %39, ptr noundef %40) #20
  br label %45

45:                                               ; preds = %43, %41
  call void @llvm.lifetime.end.p0(i64 8, ptr nonnull %9) #20
  call void @llvm.lifetime.end.p0(i64 8, ptr nonnull %8) #20
  call void @llvm.lifetime.end.p0(i64 4, ptr nonnull %7) #20
  br label %46

46:                                               ; preds = %24, %21, %11, %6, %45
  %.0 = phi i32 [ -1, %45 ], [ -1, %6 ], [ -1, %11 ], [ -1, %21 ], [ %.lobit, %24 ]
  ret i32 %.0
}